target datalayout = "e-m:e-p270:32:32-p271:32:32-p272:64:64-i64:64-i128:128-f80:128-n8:16:32:64-S128"
target triple = "x86_64-pc-linux-gnu"

%struct.ossl_ml_kem_key_st = type { ptr, ptr, ptr, ptr, ptr, ptr, ptr, ptr, ptr, ptr, ptr, ptr, ptr, i32, i32, [64 x i8], ptr }

; Function Attrs: nounwind uwtable
define i32 @ossl_ml_kem_encode_seed(ptr noundef %0, i64 noundef %1, ptr noundef %2) #0 {
  %4 = alloca i32, align 4
  %5 = alloca ptr, align 8
  %6 = alloca i64, align 8
  %7 = alloca ptr, align 8
  store ptr %0, ptr %5, align 8, !tbaa !25
  store i64 %1, ptr %6, align 8, !tbaa !42
  store ptr %2, ptr %7, align 8, !tbaa !3
  %8 = load ptr, ptr %7, align 8, !tbaa !3
  %9 = icmp eq ptr %8, null
  br i1 %9, label %18, label %10

10:                                               ; preds = %3
  %11 = load ptr, ptr %7, align 8, !tbaa !3
  %12 = getelementptr inbounds nuw %struct.ossl_ml_kem_key_st, ptr %11, i32 0, i32 12
  %13 = load ptr, ptr %12, align 8, !tbaa !22
  %14 = icmp eq ptr %13, null
  br i1 %14, label %18, label %15

15:                                               ; preds = %10
  %16 = load i64, ptr %6, align 8, !tbaa !42
  %17 = icmp ne i64 %16, 64
  br i1 %17, label %18, label %19

18:                                               ; preds = %15, %10, %3
  store i32 0, ptr %4, align 4
  br label %30

19:                                               ; preds = %15
  %20 = load ptr, ptr %5, align 8, !tbaa !25
  %21 = load ptr, ptr %7, align 8, !tbaa !3
  %22 = getelementptr inbounds nuw %struct.ossl_ml_kem_key_st, ptr %21, i32 0, i32 12
  %23 = load ptr, ptr %22, align 8, !tbaa !22
  call void @llvm.memcpy.p0.p0.i64(ptr align 1 %20, ptr align 1 %23, i64 32, i1 false)
  %24 = load ptr, ptr %5, align 8, !tbaa !25
  %25 = getelementptr inbounds i8, ptr %24, i64 32
  store ptr %25, ptr %5, align 8, !tbaa !25
  %26 = load ptr, ptr %5, align 8, !tbaa !25
  %27 = load ptr, ptr %7, align 8, !tbaa !3
  %28 = getelementptr inbounds nuw %struct.ossl_ml_kem_key_st, ptr %27, i32 0, i32 11
  %29 = load ptr, ptr %28, align 8, !tbaa !21
  call void @llvm.memcpy.p0.p0.i64(ptr align 1 %26, ptr align 1 %29, i64 32, i1 false)
  store i32 1, ptr %4, align 4
  br label %30

30:                                               ; preds = %19, %18
  %31 = load i32, ptr %4, align 4
  ret i32 %31
}