; Function Attrs: mustprogress nofree norecurse nosync nounwind willreturn memory(readwrite, inaccessiblemem: none) uwtable
define range(i32 0, 2) i32 @ossl_ml_kem_encode_seed(ptr noundef writeonly captures(none) %0, i64 noundef %1, ptr noundef readonly captures(address_is_null) %2) local_unnamed_addr #5 {
  %4 = icmp eq ptr %2, null
  br i1 %4, label %14, label %5

5:                                                ; preds = %3
  %6 = getelementptr inbounds nuw i8, ptr %2, i64 96
  %7 = load ptr, ptr %6, align 8, !tbaa !26
  %8 = icmp eq ptr %7, null
  %9 = icmp ne i64 %1, 64
  %or.cond = or i1 %9, %8
  br i1 %or.cond, label %14, label %10

10:                                               ; preds = %5
  tail call void @llvm.memcpy.p0.p0.i64(ptr noundef nonnull align 1 dereferenceable(32) %0, ptr noundef nonnull align 1 dereferenceable(32) %7, i64 32, i1 false)
  %11 = getelementptr inbounds nuw i8, ptr %0, i64 32
  %12 = getelementptr inbounds nuw i8, ptr %2, i64 88
  %13 = load ptr, ptr %12, align 8, !tbaa !34
  tail call void @llvm.memcpy.p0.p0.i64(ptr noundef nonnull align 1 dereferenceable(32) %11, ptr noundef nonnull align 1 dereferenceable(32) %13, i64 32, i1 false)
  br label %14

14:                                               ; preds = %3, %5, %10
  %.0 = phi i32 [ 1, %10 ], [ 0, %5 ], [ 0, %3 ]
  ret i32 %.0
}